; ModuleID = '23/735.c'
source_filename = "23/735.c"
target datalayout = "e-m:e-p270:32:32-p271:32:32-p272:64:64-i64:64-f80:128-n8:16:32:64-S128"
target triple = "x86_64-pc-linux-gnu"

@.str = private unnamed_addr constant [3 x i8] c"%c\00", align 1

; Function Attrs: noinline nounwind uwtable
define dso_local i32 @main() #0 {
  %1 = alloca i32, align 4
  %2 = alloca [100 x i8], align 16
  %3 = alloca i32, align 4
  %4 = alloca i32, align 4
  %5 = alloca i32, align 4
  %6 = alloca i32, align 4
  store i32 0, i32* %1, align 4
  %7 = getelementptr inbounds [100 x i8], [100 x i8]* %2, i64 0, i64 0
  %8 = call i32 (i8*, ...) bitcast (i32 (...)* @gets to i32 (i8*, ...)*)(i8* %7)
  %9 = getelementptr inbounds [100 x i8], [100 x i8]* %2, i64 0, i64 0
  %10 = call i64 @strlen(i8* %9) #3
  %11 = trunc i64 %10 to i32
  store i32 %11, i32* %3, align 4
  %12 = load i32, i32* %3, align 4
  %13 = sub nsw i32 %12, 1
  store i32 %13, i32* %5, align 4
  %14 = load i32, i32* %3, align 4
  %15 = sub nsw i32 %14, 1
  store i32 %15, i32* %4, align 4
  br label %16

16:                                               ; preds = %53, %0
  %17 = load i32, i32* %4, align 4
  %18 = icmp sgt i32 %17, 0
  br i1 %18, label %19, label %56

19:                                               ; preds = %16
  %20 = load i32, i32* %4, align 4
  %21 = sext i32 %20 to i64
  %22 = getelementptr inbounds [100 x i8], [100 x i8]* %2, i64 0, i64 %21
  %23 = load i8, i8* %22, align 1
  %24 = sext i8 %23 to i32
  %25 = icmp eq i32 %24, 32
  br i1 %25, label %26, label %52

26:                                               ; preds = %19
  %27 = load i32, i32* %4, align 4
  %28 = add nsw i32 %27, 1
  store i32 %28, i32* %6, align 4
  br label %29

29:                                               ; preds = %40, %26
  %30 = load i32, i32* %6, align 4
  %31 = load i32, i32* %5, align 4
  %32 = icmp sle i32 %30, %31
  br i1 %32, label %33, label %43

33:                                               ; preds = %29
  %34 = load i32, i32* %6, align 4
  %35 = sext i32 %34 to i64
  %36 = getelementptr inbounds [100 x i8], [100 x i8]* %2, i64 0, i64 %35
  %37 = load i8, i8* %36, align 1
  %38 = sext i8 %37 to i32
  %39 = call i32 (i8*, ...) @printf(i8* getelementptr inbounds ([3 x i8], [3 x i8]* @.str, i64 0, i64 0), i32 %38)
  br label %40

40:                                               ; preds = %33
  %41 = load i32, i32* %6, align 4
  %42 = add nsw i32 %41, 1
  store i32 %42, i32* %6, align 4
  br label %29

43:                                               ; preds = %29
  %44 = load i32, i32* %4, align 4
  %45 = sext i32 %44 to i64
  %46 = getelementptr inbounds [100 x i8], [100 x i8]* %2, i64 0, i64 %45
  %47 = load i8, i8* %46, align 1
  %48 = sext i8 %47 to i32
  %49 = call i32 (i8*, ...) @printf(i8* getelementptr inbounds ([3 x i8], [3 x i8]* @.str, i64 0, i64 0), i32 %48)
  %50 = load i32, i32* %4, align 4
  %51 = sub nsw i32 %50, 1
  store i32 %51, i32* %5, align 4
  br label %52

52:                                               ; preds = %43, %19
  br label %53

53:                                               ; preds = %52
  %54 = load i32, i32* %4, align 4
  %55 = add nsw i32 %54, -1
  store i32 %55, i32* %4, align 4
  br label %16

56:                                               ; preds = %16
  store i32 0, i32* %4, align 4
  br label %57

57:                                               ; preds = %69, %56
  %58 = load i32, i32* %4, align 4
  %59 = load i32, i32* %5, align 4
  %60 = add nsw i32 %59, 1
  %61 = icmp slt i32 %58, %60
  br i1 %61, label %62, label %72

62:                                               ; preds = %57
  %63 = load i32, i32* %4, align 4
  %64 = sext i32 %63 to i64
  %65 = getelementptr inbounds [100 x i8], [100 x i8]* %2, i64 0, i64 %64
  %66 = load i8, i8* %65, align 1
  %67 = sext i8 %66 to i32
  %68 = call i32 (i8*, ...) @printf(i8* getelementptr inbounds ([3 x i8], [3 x i8]* @.str, i64 0, i64 0), i32 %67)
  br label %69

69:                                               ; preds = %62
  %70 = load i32, i32* %4, align 4
  %71 = add nsw i32 %70, 1
  store i32 %71, i32* %4, align 4
  br label %57

72:                                               ; preds = %57
  %73 = load i32, i32* %1, align 4
  ret i32 %73
}

declare dso_local i32 @gets(...) #1

; Function Attrs: nounwind readonly
declare dso_local i64 @strlen(i8*) #2

declare dso_local i32 @printf(i8*, ...) #1


!llvm.module.flags = !{!0}
!llvm.ident = !{!1}

!0 = !{i32 1, !"wchar_size", i32 4}
!1 = !{!"clang version 10.0.0-4ubuntu1 "}
